; Function Attrs: nounwind uwtable
define void @UI_destroy_method(ptr noundef %0) local_unnamed_addr #0 {
  %2 = icmp eq ptr %0, null
  br i1 %2, label %6, label %3

3:                                                ; preds = %1
  %4 = getelementptr inbounds nuw i8, ptr %0, i64 72
  tail call void @CRYPTO_free_ex_data(i32 noundef 14, ptr noundef nonnull %0, ptr noundef nonnull %4) #8
  %5 = load ptr, ptr %0, align 8, !tbaa !40
  tail call void @CRYPTO_free(ptr noundef %5, ptr noundef nonnull @.str, i32 noundef 613) #8
  store ptr null, ptr %0, align 8, !tbaa !40
  tail call void @CRYPTO_free(ptr noundef nonnull %0, ptr noundef nonnull @.str, i32 noundef 615) #8
  br label %6

6:                                                ; preds = %1, %3
  ret void
}